target datalayout = "e-m:e-p270:32:32-p271:32:32-p272:64:64-i64:64-i128:128-f80:128-n8:16:32:64-S128"
target triple = "x86_64-pc-linux-gnu"

%struct.XLogRecordBuffer = type { i64, i64, ptr }
%struct.LogicalDecodingContext = type { ptr, ptr, ptr, ptr, ptr, i8, %struct.OutputPluginCallbacks, %struct.OutputPluginOptions, ptr, ptr, ptr, ptr, ptr, ptr, ptr, i8, i8, i8, i8, i8, i64, i32, i8, i8 }
%struct.OutputPluginCallbacks = type { ptr, ptr, ptr, ptr, ptr, ptr, ptr, ptr, ptr, ptr, ptr, ptr, ptr, ptr, ptr, ptr, ptr, ptr, ptr, ptr, ptr }
%struct.OutputPluginOptions = type { i32, i8 }
%struct.XLogReaderState = type { %struct.XLogReaderRoutine, i64, ptr, i64, i64, i64, i64, i64, i64, i64, i64, ptr, ptr, i64, i8, ptr, ptr, ptr, ptr, ptr, i32, %struct.WALSegmentContext, %struct.WALOpenSegment, i32, i64, i32, i64, i32, i64, i32, ptr, i32, ptr, i8, i8 }
%struct.XLogReaderRoutine = type { ptr, ptr, ptr }
%struct.WALSegmentContext = type { [1024 x i8], i32 }
%struct.WALOpenSegment = type { i32, i64, i32 }
%struct.DecodedXLogRecord = type { i64, i8, ptr, i64, i64, %struct.XLogRecord, i16, i32, ptr, i32, i32, [0 x %struct.DecodedBkpBlock] }
%struct.XLogRecord = type { i32, i32, i64, i8, i8, i32 }
%struct.DecodedBkpBlock = type { i8, %struct.RelFileLocator, i32, i32, i32, i8, i8, i8, ptr, i16, i16, i16, i8, i8, ptr, i16, i16 }
%struct.RelFileLocator = type { i32, i32, i32 }

@.str.1 = private unnamed_addr constant [9 x i8] c"decode.c\00", align 1
@.str.5 = private unnamed_addr constant [39 x i8] c"unexpected RM_HEAP2_ID record type: %u\00", align 1
@__func__.heap2_decode = private unnamed_addr constant [13 x i8] c"heap2_decode\00", align 1

; Function Attrs: nounwind uwtable
define dso_local void @heap2_decode(ptr noundef %0, ptr noundef %1) #0 {
  %3 = alloca ptr, align 8
  %4 = alloca ptr, align 8
  %5 = alloca i8, align 1
  %6 = alloca i32, align 4
  %7 = alloca ptr, align 8
  %8 = alloca i32, align 4
  %9 = alloca ptr, align 8
  store ptr %0, ptr %3, align 8
  store ptr %1, ptr %4, align 8
  call void @llvm.lifetime.start.p0(i64 1, ptr %5) #8
  %10 = load ptr, ptr %4, align 8
  %11 = getelementptr inbounds nuw %struct.XLogRecordBuffer, ptr %10, i32 0, i32 2
  %12 = load ptr, ptr %11, align 8
  %13 = getelementptr inbounds nuw %struct.XLogReaderState, ptr %12, i32 0, i32 11
  %14 = load ptr, ptr %13, align 8
  %15 = getelementptr inbounds nuw %struct.DecodedXLogRecord, ptr %14, i32 0, i32 5
  %16 = getelementptr inbounds nuw %struct.XLogRecord, ptr %15, i32 0, i32 3
  %17 = load i8, ptr %16, align 8
  %18 = zext i8 %17 to i32
  %19 = and i32 %18, 112
  %20 = trunc i32 %19 to i8
  store i8 %20, ptr %5, align 1
  call void @llvm.lifetime.start.p0(i64 4, ptr %6) #8
  %21 = load ptr, ptr %4, align 8
  %22 = getelementptr inbounds nuw %struct.XLogRecordBuffer, ptr %21, i32 0, i32 2
  %23 = load ptr, ptr %22, align 8
  %24 = getelementptr inbounds nuw %struct.XLogReaderState, ptr %23, i32 0, i32 11
  %25 = load ptr, ptr %24, align 8
  %26 = getelementptr inbounds nuw %struct.DecodedXLogRecord, ptr %25, i32 0, i32 5
  %27 = getelementptr inbounds nuw %struct.XLogRecord, ptr %26, i32 0, i32 1
  %28 = load i32, ptr %27, align 4
  store i32 %28, ptr %6, align 4
  call void @llvm.lifetime.start.p0(i64 8, ptr %7) #8
  %29 = load ptr, ptr %3, align 8
  %30 = getelementptr inbounds nuw %struct.LogicalDecodingContext, ptr %29, i32 0, i32 4
  %31 = load ptr, ptr %30, align 8
  store ptr %31, ptr %7, align 8
  %32 = load ptr, ptr %3, align 8
  %33 = getelementptr inbounds nuw %struct.LogicalDecodingContext, ptr %32, i32 0, i32 3
  %34 = load ptr, ptr %33, align 8
  %35 = load i32, ptr %6, align 4
  %36 = load ptr, ptr %4, align 8
  %37 = getelementptr inbounds nuw %struct.XLogRecordBuffer, ptr %36, i32 0, i32 0
  %38 = load i64, ptr %37, align 8
  call void @ReorderBufferProcessXid(ptr noundef %34, i32 noundef %35, i64 noundef %38)
  %39 = load ptr, ptr %7, align 8
  %40 = call i32 @SnapBuildCurrentState(ptr noundef %39)
  %41 = icmp slt i32 %40, 1
  br i1 %41, label %47, label %42

42:                                               ; preds = %2
  %43 = load ptr, ptr %3, align 8
  %44 = getelementptr inbounds nuw %struct.LogicalDecodingContext, ptr %43, i32 0, i32 5
  %45 = load i8, ptr %44, align 8, !range !4, !noundef !5
  %46 = trunc i8 %45 to i1
  br i1 %46, label %47, label %48

47:                                               ; preds = %42, %2
  store i32 1, ptr %8, align 4
  br label %91

48:                                               ; preds = %42
  %49 = load i8, ptr %5, align 1
  %50 = zext i8 %49 to i32
  switch i32 %50, label %77 [
    i32 80, label %51
    i32 112, label %62
    i32 0, label %90
    i32 16, label %76
    i32 32, label %76
    i32 48, label %76
    i32 64, label %76
    i32 96, label %76
  ]

51:                                               ; preds = %48
  %52 = load ptr, ptr %7, align 8
  %53 = load i32, ptr %6, align 4
  %54 = load ptr, ptr %4, align 8
  %55 = getelementptr inbounds nuw %struct.XLogRecordBuffer, ptr %54, i32 0, i32 0
  %56 = load i64, ptr %55, align 8
  %57 = call zeroext i1 @SnapBuildProcessChange(ptr noundef %52, i32 noundef %53, i64 noundef %56)
  br i1 %57, label %58, label %61

58:                                               ; preds = %51
  %59 = load ptr, ptr %3, align 8
  %60 = load ptr, ptr %4, align 8
  call void @DecodeMultiInsert(ptr noundef %59, ptr noundef %60)
  br label %61

61:                                               ; preds = %58, %51
  br label %90

62:                                               ; preds = %48
  call void @llvm.lifetime.start.p0(i64 8, ptr %9) #8
  %63 = load ptr, ptr %4, align 8
  %64 = getelementptr inbounds nuw %struct.XLogRecordBuffer, ptr %63, i32 0, i32 2
  %65 = load ptr, ptr %64, align 8
  %66 = getelementptr inbounds nuw %struct.XLogReaderState, ptr %65, i32 0, i32 11
  %67 = load ptr, ptr %66, align 8
  %68 = getelementptr inbounds nuw %struct.DecodedXLogRecord, ptr %67, i32 0, i32 8
  %69 = load ptr, ptr %68, align 8
  store ptr %69, ptr %9, align 8
  %70 = load ptr, ptr %7, align 8
  %71 = load i32, ptr %6, align 4
  %72 = load ptr, ptr %4, align 8
  %73 = getelementptr inbounds nuw %struct.XLogRecordBuffer, ptr %72, i32 0, i32 0
  %74 = load i64, ptr %73, align 8
  %75 = load ptr, ptr %9, align 8
  call void @SnapBuildProcessNewCid(ptr noundef %70, i32 noundef %71, i64 noundef %74, ptr noundef %75)
  store i32 2, ptr %8, align 4
  call void @llvm.lifetime.end.p0(i64 8, ptr %9) #8
  br label %90

76:                                               ; preds = %48, %48, %48, %48, %48
  br label %90

77:                                               ; preds = %48
  br label %78

78:                                               ; preds = %77
  br i1 true, label %79, label %81

79:                                               ; preds = %78
  %80 = call zeroext i1 @errstart_cold(i32 noundef 21, ptr noundef null) #9
  br i1 %80, label %83, label %87

81:                                               ; preds = %78
  %82 = call zeroext i1 @errstart(i32 noundef 21, ptr noundef null)
  br i1 %82, label %83, label %87

83:                                               ; preds = %81, %79
  %84 = load i8, ptr %5, align 1
  %85 = zext i8 %84 to i32
  %86 = call i32 (ptr, ...) @errmsg_internal(ptr noundef @.str.5, i32 noundef %85)
  call void @errfinish(ptr noundef @.str.1, i32 noundef 456, ptr noundef @__func__.heap2_decode)
  br label %87

87:                                               ; preds = %83, %81, %79
  unreachable

88:                                               ; No predecessors!
  br label %89

89:                                               ; preds = %88
  br label %90

90:                                               ; preds = %89, %76, %48, %62, %61
  store i32 0, ptr %8, align 4
  br label %91

91:                                               ; preds = %90, %47
  call void @llvm.lifetime.end.p0(i64 8, ptr %7) #8
  call void @llvm.lifetime.end.p0(i64 4, ptr %6) #8
  call void @llvm.lifetime.end.p0(i64 1, ptr %5) #8
  %92 = load i32, ptr %8, align 4
  switch i32 %92, label %94 [
    i32 0, label %93
    i32 1, label %93
  ]

93:                                               ; preds = %91, %91
  ret void

94:                                               ; preds = %91
  unreachable
}