; Function Attrs: nounwind uwtable
define dso_local void @heap2_decode(ptr noundef %0, ptr noundef readonly captures(none) %1) local_unnamed_addr #0 {
  %3 = getelementptr inbounds nuw i8, ptr %1, i64 16
  %4 = load ptr, ptr %3, align 8
  %5 = getelementptr inbounds nuw i8, ptr %4, i64 104
  %6 = load ptr, ptr %5, align 8
  %7 = getelementptr inbounds nuw i8, ptr %6, i64 56
  %8 = load i8, ptr %7, align 8
  %9 = getelementptr inbounds nuw i8, ptr %6, i64 44
  %10 = load i32, ptr %9, align 4
  %11 = getelementptr inbounds nuw i8, ptr %0, i64 32
  %12 = load ptr, ptr %11, align 8
  %13 = getelementptr inbounds nuw i8, ptr %0, i64 24
  %14 = load ptr, ptr %13, align 8
  %15 = load i64, ptr %1, align 8
  tail call void @ReorderBufferProcessXid(ptr noundef %14, i32 noundef %10, i64 noundef %15) #7
  %16 = tail call i32 @SnapBuildCurrentState(ptr noundef %12) #7
  %17 = icmp slt i32 %16, 1
  br i1 %17, label %36, label %18

18:                                               ; preds = %2
  %19 = getelementptr inbounds nuw i8, ptr %0, i64 40
  %20 = load i8, ptr %19, align 8, !range !8, !noundef !9
  %21 = trunc nuw i8 %20 to i1
  br i1 %21, label %36, label %22

22:                                               ; preds = %18
  %23 = lshr i8 %8, 4
  %24 = and i8 %23, 7
  switch i8 %24, label %default.unreachable [
    i8 5, label %25
    i8 7, label %29
    i8 0, label %36
    i8 1, label %36
    i8 2, label %36
    i8 3, label %36
    i8 4, label %36
    i8 6, label %36
  ]

25:                                               ; preds = %22
  %26 = load i64, ptr %1, align 8
  %27 = tail call zeroext i1 @SnapBuildProcessChange(ptr noundef %12, i32 noundef %10, i64 noundef %26) #7
  br i1 %27, label %28, label %36

28:                                               ; preds = %25
  tail call fastcc void @DecodeMultiInsert(ptr noundef nonnull %0, ptr noundef nonnull %1)
  br label %36

29:                                               ; preds = %22
  %30 = load ptr, ptr %3, align 8
  %31 = getelementptr inbounds nuw i8, ptr %30, i64 104
  %32 = load ptr, ptr %31, align 8
  %33 = getelementptr inbounds nuw i8, ptr %32, i64 72
  %34 = load ptr, ptr %33, align 8
  %35 = load i64, ptr %1, align 8
  tail call void @SnapBuildProcessNewCid(ptr noundef %12, i32 noundef %10, i64 noundef %35, ptr noundef %34) #7
  br label %36

default.unreachable:                              ; preds = %22
  unreachable

36:                                               ; preds = %22, %29, %28, %25, %22, %22, %22, %22, %22, %2, %18
  ret void
}